; Function Attrs: mustprogress uwtable
define internal void @_ZN2cv3hal12cpu_baseline12_GLOBAL__N_114cvtYUV420p2RGBILi2ELi3EEEvPhmiimPKhS6_S6_ii(ptr noundef %0, i64 noundef %1, i32 noundef %2, i32 noundef %3, i64 noundef %4, ptr noundef %5, ptr noundef %6, ptr noundef %7, i32 noundef %8, i32 noundef %9) unnamed_addr #0 personality ptr @__gxx_personality_v0 {
  %11 = alloca %"struct.cv::hal::cpu_baseline::(anonymous namespace)::YUV420p2RGB8Invoker.20", align 8
  %12 = alloca %"class.cv::Range", align 4
  %13 = alloca %"class.cv::Range", align 4
  store ptr getelementptr inbounds inrange(-16, 24) (i8, ptr @_ZTVN2cv3hal12cpu_baseline12_GLOBAL__N_119YUV420p2RGB8InvokerILi2ELi3EEE, i64 16), ptr %11, align 8
  %14 = getelementptr inbounds i8, ptr %11, i64 8
  store ptr %0, ptr %14, align 8
  %15 = getelementptr inbounds i8, ptr %11, i64 16
  store i64 %1, ptr %15, align 8
  %16 = getelementptr inbounds i8, ptr %11, i64 24
  store i32 %2, ptr %16, align 8
  %17 = getelementptr inbounds i8, ptr %11, i64 32
  store ptr %5, ptr %17, align 8
  %18 = getelementptr inbounds i8, ptr %11, i64 40
  store ptr %6, ptr %18, align 8
  %19 = getelementptr inbounds i8, ptr %11, i64 48
  store ptr %7, ptr %19, align 8
  %20 = getelementptr inbounds i8, ptr %11, i64 56
  store i64 %4, ptr %20, align 8
  %21 = getelementptr inbounds i8, ptr %11, i64 64
  store i32 %8, ptr %21, align 8
  %22 = getelementptr inbounds i8, ptr %11, i64 68
  store i32 %9, ptr %22, align 4
  %23 = mul nsw i32 %3, %2
  %24 = icmp sgt i32 %23, 76799
  %25 = sdiv i32 %3, 2
  br i1 %24, label %26, label %30

26:                                               ; preds = %10
  store i32 0, ptr %12, align 4
  %27 = getelementptr inbounds i8, ptr %12, i64 4
  store i32 %25, ptr %27, align 4
  invoke void @_ZN2cv13parallel_for_ERKNS_5RangeERKNS_16ParallelLoopBodyEd(ptr noundef nonnull align 4 dereferenceable(8) %12, ptr noundef nonnull align 8 dereferenceable(8) %11, double noundef -1.000000e+00)
          to label %32 unwind label %28

28:                                               ; preds = %26
  %29 = landingpad { ptr, i32 }
          cleanup
  call void @_ZN2cv16ParallelLoopBodyD2Ev(ptr noundef nonnull align 8 dereferenceable(8) %11) #12
  resume { ptr, i32 } %29

30:                                               ; preds = %10
  store i32 0, ptr %13, align 4
  %31 = getelementptr inbounds i8, ptr %13, i64 4
  store i32 %25, ptr %31, align 4
  call void @_ZNK2cv3hal12cpu_baseline12_GLOBAL__N_119YUV420p2RGB8InvokerILi2ELi3EEclERKNS_5RangeE(ptr noundef nonnull align 8 dereferenceable(72) %11, ptr noundef nonnull align 4 dereferenceable(8) %13)
  br label %32

32:                                               ; preds = %30, %26
  call void @_ZN2cv16ParallelLoopBodyD2Ev(ptr noundef nonnull align 8 dereferenceable(8) %11) #12
  ret void
}